; Function Attrs: mustprogress uwtable
define internal noundef zeroext i1 @"_ZNSt17_Function_handlerIFbvEZN6google8protobuf2io7Printer9ValueImplILb1EE18ToStringOrCallbackIZNS2_8compiler3cpp22ParseFunctionGenerator17GenerateDataDeclsEPS4_E3$_0vEESt7variantIJNSt7__cxx1112basic_stringIcSt11char_traitsIcESaIcEEESt8functionIS0_EEEOT_NS6_5Rank2EEUlvE_E9_M_invokeERKSt9_Any_data"(ptr nocapture noundef nonnull readonly align 8 dereferenceable(16) %__functor) #3 align 2 personality ptr @__gxx_personality_v0 {
entry:
  %__functor.val = load ptr, ptr %__functor, align 8
  %0 = getelementptr inbounds i8, ptr %__functor.val, i64 16
  %1 = load i8, ptr %0, align 8
  %2 = and i8 %1, 1
  %tobool.not.i.i.i = icmp eq i8 %2, 0
  br i1 %tobool.not.i.i.i, label %if.end.i.i.i, label %"_ZSt10__invoke_rIbRZN6google8protobuf2io7Printer9ValueImplILb1EE18ToStringOrCallbackIZNS1_8compiler3cpp22ParseFunctionGenerator17GenerateDataDeclsEPS3_E3$_0vEESt7variantIJNSt7__cxx1112basic_stringIcSt11char_traitsIcESaIcEEESt8functionIFbvEEEEOT_NS5_5Rank2EEUlvE_JEENSt9enable_ifIX16is_invocable_r_vISN_T0_DpT1_EESN_E4typeEOST_DpOSU_.exit"

if.end.i.i.i:                                     ; preds = %entry
  store i8 1, ptr %0, align 8
  %3 = load ptr, ptr %__functor.val, align 8
  %options_.i.i.i.i = getelementptr inbounds i8, ptr %3, i64 16
  %4 = load ptr, ptr %options_.i.i.i.i, align 8
  %call.i.i.i.i = tail call noundef zeroext i1 @_ZN6google8protobuf8compiler3cpp15IsProfileDrivenERKNS2_7OptionsE(ptr noundef nonnull align 8 dereferenceable(206) %4)
  br i1 %call.i.i.i.i, label %if.end.i.i.i.i, label %"_ZZN6google8protobuf8compiler3cpp22ParseFunctionGenerator17GenerateDataDeclsEPNS0_2io7PrinterEENK3$_0clEv.exit.i.i.i"

if.end.i.i.i.i:                                   ; preds = %if.end.i.i.i
  %5 = load ptr, ptr %3, align 8
  %6 = load ptr, ptr %options_.i.i.i.i, align 8
  %call3.i.i.i.i = tail call noundef zeroext i1 @_ZN6google8protobuf8compiler3cpp16IsPresentMessageEPKNS0_10DescriptorERKNS2_7OptionsE(ptr noundef %5, ptr noundef nonnull align 8 dereferenceable(206) %6)
  %7 = getelementptr inbounds i8, ptr %__functor.val, i64 8
  %8 = load ptr, ptr %7, align 8
  %9 = load ptr, ptr %8, align 8
  br i1 %call3.i.i.i.i, label %if.then4.i.i.i.i, label %if.else.i.i.i.i

if.then4.i.i.i.i:                                 ; preds = %if.end.i.i.i.i
  tail call void @_ZN6google8protobuf2io7Printer4EmitEN4absl12lts_202308024SpanIKNS2_3SubEEESt17basic_string_viewIcSt11char_traitsIcEENS2_14SourceLocationE(ptr noundef nonnull align 8 dereferenceable(256) %9, ptr null, i64 0, i64 54, ptr nonnull @.str.222)
  br label %"_ZZN6google8protobuf8compiler3cpp22ParseFunctionGenerator17GenerateDataDeclsEPNS0_2io7PrinterEENK3$_0clEv.exit.i.i.i"

if.else.i.i.i.i:                                  ; preds = %if.end.i.i.i.i
  tail call void @_ZN6google8protobuf2io7Printer4EmitEN4absl12lts_202308024SpanIKNS2_3SubEEESt17basic_string_viewIcSt11char_traitsIcEENS2_14SourceLocationE(ptr noundef nonnull align 8 dereferenceable(256) %9, ptr null, i64 0, i64 59, ptr nonnull @.str.223)
  br label %"_ZZN6google8protobuf8compiler3cpp22ParseFunctionGenerator17GenerateDataDeclsEPNS0_2io7PrinterEENK3$_0clEv.exit.i.i.i"

"_ZZN6google8protobuf8compiler3cpp22ParseFunctionGenerator17GenerateDataDeclsEPNS0_2io7PrinterEENK3$_0clEv.exit.i.i.i": ; preds = %if.else.i.i.i.i, %if.then4.i.i.i.i, %if.end.i.i.i
  store i8 0, ptr %0, align 8
  br label %"_ZSt10__invoke_rIbRZN6google8protobuf2io7Printer9ValueImplILb1EE18ToStringOrCallbackIZNS1_8compiler3cpp22ParseFunctionGenerator17GenerateDataDeclsEPS3_E3$_0vEESt7variantIJNSt7__cxx1112basic_stringIcSt11char_traitsIcESaIcEEESt8functionIFbvEEEEOT_NS5_5Rank2EEUlvE_JEENSt9enable_ifIX16is_invocable_r_vISN_T0_DpT1_EESN_E4typeEOST_DpOSU_.exit"

"_ZSt10__invoke_rIbRZN6google8protobuf2io7Printer9ValueImplILb1EE18ToStringOrCallbackIZNS1_8compiler3cpp22ParseFunctionGenerator17GenerateDataDeclsEPS3_E3$_0vEESt7variantIJNSt7__cxx1112basic_stringIcSt11char_traitsIcESaIcEEESt8functionIFbvEEEEOT_NS5_5Rank2EEUlvE_JEENSt9enable_ifIX16is_invocable_r_vISN_T0_DpT1_EESN_E4typeEOST_DpOSU_.exit": ; preds = %entry, %"_ZZN6google8protobuf8compiler3cpp22ParseFunctionGenerator17GenerateDataDeclsEPNS0_2io7PrinterEENK3$_0clEv.exit.i.i.i"
  ret i1 %tobool.not.i.i.i
}